; ModuleID = 'source-C-CXX/22/573.cpp'
source_filename = "source-C-CXX/22/573.cpp"
target datalayout = "e-m:e-p270:32:32-p271:32:32-p272:64:64-i64:64-f80:128-n8:16:32:64-S128"
target triple = "x86_64-pc-linux-gnu"

%"class.std::ios_base::Init" = type { i8 }
%"class.std::basic_istream" = type { i32 (...)**, i64, %"class.std::basic_ios" }
%"class.std::basic_ios" = type { %"class.std::ios_base", %"class.std::basic_ostream"*, i8, i8, %"class.std::basic_streambuf"*, %"class.std::ctype"*, %"class.std::num_put"*, %"class.std::num_get"* }
%"class.std::ios_base" = type { i32 (...)**, i64, i64, i32, i32, i32, %"struct.std::ios_base::_Callback_list"*, %"struct.std::ios_base::_Words", [8 x %"struct.std::ios_base::_Words"], i32, %"struct.std::ios_base::_Words"*, %"class.std::locale" }
%"struct.std::ios_base::_Callback_list" = type { %"struct.std::ios_base::_Callback_list"*, void (i32, %"class.std::ios_base"*, i32)*, i32, i32 }
%"struct.std::ios_base::_Words" = type { i8*, i64 }
%"class.std::locale" = type { %"class.std::locale::_Impl"* }
%"class.std::locale::_Impl" = type { i32, %"class.std::locale::facet"**, i64, %"class.std::locale::facet"**, i8** }
%"class.std::locale::facet" = type <{ i32 (...)**, i32, [4 x i8] }>
%"class.std::basic_ostream" = type { i32 (...)**, %"class.std::basic_ios" }
%"class.std::basic_streambuf" = type { i32 (...)**, i8*, i8*, i8*, i8*, i8*, i8*, %"class.std::locale" }
%"class.std::ctype" = type <{ %"class.std::locale::facet.base", [4 x i8], %struct.__locale_struct*, i8, [7 x i8], i32*, i32*, i16*, i8, [256 x i8], [256 x i8], i8, [6 x i8] }>
%"class.std::locale::facet.base" = type <{ i32 (...)**, i32 }>
%struct.__locale_struct = type { [13 x %struct.__locale_data*], i16*, i32*, i32*, [13 x i8*] }
%struct.__locale_data = type opaque
%"class.std::num_put" = type { %"class.std::locale::facet.base", [4 x i8] }
%"class.std::num_get" = type { %"class.std::locale::facet.base", [4 x i8] }

@_ZStL8__ioinit = internal global %"class.std::ios_base::Init" zeroinitializer, align 1
@__dso_handle = external hidden global i8
@_ZSt3cin = external global %"class.std::basic_istream", align 8
@_ZSt4cout = external global %"class.std::basic_ostream", align 8
@llvm.global_ctors = appending global [1 x { i32, void ()*, i8* }] [{ i32, void ()*, i8* } { i32 65535, void ()* @_GLOBAL__sub_I_573.cpp, i8* null }]

declare void @_ZNSt8ios_base4InitC1Ev(%"class.std::ios_base::Init"* nonnull align 1 dereferenceable(1)) unnamed_addr #0

; Function Attrs: nounwind
declare void @_ZNSt8ios_base4InitD1Ev(%"class.std::ios_base::Init"* nonnull align 1 dereferenceable(1)) unnamed_addr #1

; Function Attrs: nofree nounwind
declare i32 @__cxa_atexit(void (i8*)*, i8*, i8*) local_unnamed_addr #2

; Function Attrs: mustprogress norecurse sspstrong uwtable
define dso_local i32 @main() local_unnamed_addr #3 {
  %1 = alloca i8, align 1
  %2 = alloca [1000 x i8], align 16
  %3 = alloca [100 x [100 x i8]], align 16
  %4 = getelementptr inbounds [1000 x i8], [1000 x i8]* %2, i64 0, i64 0
  call void @llvm.lifetime.start.p0i8(i64 1000, i8* nonnull %4) #8
  %5 = getelementptr inbounds [100 x [100 x i8]], [100 x [100 x i8]]* %3, i64 0, i64 0, i64 0
  call void @llvm.lifetime.start.p0i8(i64 10000, i8* nonnull %5) #8
  %6 = load i8*, i8** bitcast (%"class.std::basic_istream"* @_ZSt3cin to i8**), align 8, !tbaa !5
  %7 = getelementptr i8, i8* %6, i64 -24
  %8 = bitcast i8* %7 to i64*
  %9 = load i64, i64* %8, align 8
  %10 = add nsw i64 %9, 240
  %11 = getelementptr inbounds i8, i8* bitcast (%"class.std::basic_istream"* @_ZSt3cin to i8*), i64 %10
  %12 = bitcast i8* %11 to %"class.std::ctype"**
  %13 = load %"class.std::ctype"*, %"class.std::ctype"** %12, align 8, !tbaa !8
  %14 = icmp eq %"class.std::ctype"* %13, null
  br i1 %14, label %15, label %16

15:                                               ; preds = %0
  tail call void @_ZSt16__throw_bad_castv() #9
  unreachable

16:                                               ; preds = %0
  %17 = getelementptr inbounds %"class.std::ctype", %"class.std::ctype"* %13, i64 0, i32 8
  %18 = load i8, i8* %17, align 8, !tbaa !13
  %19 = icmp eq i8 %18, 0
  br i1 %19, label %23, label %20

20:                                               ; preds = %16
  %21 = getelementptr inbounds %"class.std::ctype", %"class.std::ctype"* %13, i64 0, i32 9, i64 10
  %22 = load i8, i8* %21, align 1, !tbaa !15
  br label %29

23:                                               ; preds = %16
  tail call void @_ZNKSt5ctypeIcE13_M_widen_initEv(%"class.std::ctype"* nonnull align 8 dereferenceable(570) %13)
  %24 = bitcast %"class.std::ctype"* %13 to i8 (%"class.std::ctype"*, i8)***
  %25 = load i8 (%"class.std::ctype"*, i8)**, i8 (%"class.std::ctype"*, i8)*** %24, align 8, !tbaa !5
  %26 = getelementptr inbounds i8 (%"class.std::ctype"*, i8)*, i8 (%"class.std::ctype"*, i8)** %25, i64 6
  %27 = load i8 (%"class.std::ctype"*, i8)*, i8 (%"class.std::ctype"*, i8)** %26, align 8
  %28 = tail call signext i8 %27(%"class.std::ctype"* nonnull align 8 dereferenceable(570) %13, i8 signext 10)
  br label %29

29:                                               ; preds = %20, %23
  %30 = phi i8 [ %22, %20 ], [ %28, %23 ]
  %31 = call nonnull align 8 dereferenceable(16) %"class.std::basic_istream"* @_ZNSi7getlineEPclc(%"class.std::basic_istream"* nonnull align 8 dereferenceable(16) @_ZSt3cin, i8* nonnull %4, i64 1000, i8 signext %30)
  %32 = call i64 @strlen(i8* noundef nonnull %4) #10
  %33 = trunc i64 %32 to i32
  %34 = icmp sgt i32 %33, 0
  br i1 %34, label %35, label %64

35:                                               ; preds = %29
  %36 = and i64 %32, 4294967295
  br label %37

37:                                               ; preds = %35, %59
  %38 = phi i64 [ 0, %35 ], [ %60, %59 ]
  %39 = phi i32 [ 0, %35 ], [ %62, %59 ]
  %40 = phi i32 [ 0, %35 ], [ %61, %59 ]
  %41 = getelementptr inbounds [1000 x i8], [1000 x i8]* %2, i64 0, i64 %38
  %42 = load i8, i8* %41, align 1, !tbaa !15
  %43 = icmp eq i8 %42, 32
  br i1 %43, label %50, label %44

44:                                               ; preds = %37
  %45 = sext i32 %40 to i64
  %46 = sext i32 %39 to i64
  %47 = getelementptr inbounds [100 x [100 x i8]], [100 x [100 x i8]]* %3, i64 0, i64 %45, i64 %46
  store i8 %42, i8* %47, align 1, !tbaa !15
  %48 = add nsw i32 %39, 1
  %49 = add nuw nsw i64 %38, 1
  br label %59

50:                                               ; preds = %37
  %51 = add nuw nsw i64 %38, 1
  %52 = getelementptr inbounds [1000 x i8], [1000 x i8]* %2, i64 0, i64 %51
  %53 = load i8, i8* %52, align 1, !tbaa !15
  %54 = icmp eq i8 %53, 32
  %55 = xor i1 %54, true
  %56 = zext i1 %55 to i32
  %57 = add nsw i32 %40, %56
  %58 = select i1 %54, i32 %39, i32 0
  br label %59

59:                                               ; preds = %50, %44
  %60 = phi i64 [ %51, %50 ], [ %49, %44 ]
  %61 = phi i32 [ %57, %50 ], [ %40, %44 ]
  %62 = phi i32 [ %58, %50 ], [ %48, %44 ]
  %63 = icmp eq i64 %60, %36
  br i1 %63, label %64, label %37, !llvm.loop !16

64:                                               ; preds = %59, %29
  %65 = phi i32 [ 0, %29 ], [ %61, %59 ]
  %66 = sext i32 %65 to i64
  %67 = getelementptr inbounds [100 x [100 x i8]], [100 x [100 x i8]]* %3, i64 0, i64 %66, i64 0
  %68 = call i64 @strlen(i8* noundef nonnull dereferenceable(1) %67) #8
  %69 = call nonnull align 8 dereferenceable(8) %"class.std::basic_ostream"* @_ZSt16__ostream_insertIcSt11char_traitsIcEERSt13basic_ostreamIT_T0_ES6_PKS3_l(%"class.std::basic_ostream"* nonnull align 8 dereferenceable(8) @_ZSt4cout, i8* nonnull %67, i64 %68)
  %70 = icmp sgt i32 %65, 0
  br i1 %70, label %71, label %84

71:                                               ; preds = %64
  %72 = zext i32 %65 to i64
  br label %73

73:                                               ; preds = %71, %73
  %74 = phi i64 [ %72, %71 ], [ %83, %73 ]
  %75 = phi i32 [ %65, %71 ], [ %76, %73 ]
  %76 = add nsw i32 %75, -1
  call void @llvm.lifetime.start.p0i8(i64 1, i8* nonnull %1)
  store i8 32, i8* %1, align 1, !tbaa !15
  %77 = call nonnull align 8 dereferenceable(8) %"class.std::basic_ostream"* @_ZSt16__ostream_insertIcSt11char_traitsIcEERSt13basic_ostreamIT_T0_ES6_PKS3_l(%"class.std::basic_ostream"* nonnull align 8 dereferenceable(8) @_ZSt4cout, i8* nonnull %1, i64 1)
  call void @llvm.lifetime.end.p0i8(i64 1, i8* nonnull %1)
  %78 = zext i32 %76 to i64
  %79 = getelementptr inbounds [100 x [100 x i8]], [100 x [100 x i8]]* %3, i64 0, i64 %78, i64 0
  %80 = call i64 @strlen(i8* noundef nonnull dereferenceable(1) %79) #8
  %81 = call nonnull align 8 dereferenceable(8) %"class.std::basic_ostream"* @_ZSt16__ostream_insertIcSt11char_traitsIcEERSt13basic_ostreamIT_T0_ES6_PKS3_l(%"class.std::basic_ostream"* nonnull align 8 dereferenceable(8) %77, i8* nonnull %79, i64 %80)
  %82 = icmp sgt i64 %74, 1
  %83 = add nsw i64 %74, -1
  br i1 %82, label %73, label %84, !llvm.loop !18

84:                                               ; preds = %73, %64
  call void @llvm.lifetime.end.p0i8(i64 10000, i8* nonnull %5) #8
  call void @llvm.lifetime.end.p0i8(i64 1000, i8* nonnull %4) #8
  ret i32 0
}

; Function Attrs: argmemonly mustprogress nofree nosync nounwind willreturn
declare void @llvm.lifetime.start.p0i8(i64 immarg, i8* nocapture) #4

; Function Attrs: argmemonly mustprogress nofree nounwind readonly willreturn
declare i64 @strlen(i8* nocapture) local_unnamed_addr #5

; Function Attrs: argmemonly mustprogress nofree nosync nounwind willreturn
declare void @llvm.lifetime.end.p0i8(i64 immarg, i8* nocapture) #4

declare nonnull align 8 dereferenceable(16) %"class.std::basic_istream"* @_ZNSi7getlineEPclc(%"class.std::basic_istream"* nonnull align 8 dereferenceable(16), i8*, i64, i8 signext) local_unnamed_addr #0

; Function Attrs: noreturn
declare void @_ZSt16__throw_bad_castv() local_unnamed_addr #6

declare void @_ZNKSt5ctypeIcE13_M_widen_initEv(%"class.std::ctype"* nonnull align 8 dereferenceable(570)) local_unnamed_addr #0

declare nonnull align 8 dereferenceable(8) %"class.std::basic_ostream"* @_ZSt16__ostream_insertIcSt11char_traitsIcEERSt13basic_ostreamIT_T0_ES6_PKS3_l(%"class.std::basic_ostream"* nonnull align 8 dereferenceable(8), i8*, i64) local_unnamed_addr #0

; Function Attrs: sspstrong uwtable
define internal void @_GLOBAL__sub_I_573.cpp() #7 section ".text.startup" {
  tail call void @_ZNSt8ios_base4InitC1Ev(%"class.std::ios_base::Init"* nonnull align 1 dereferenceable(1) @_ZStL8__ioinit)
  %1 = tail call i32 @__cxa_atexit(void (i8*)* bitcast (void (%"class.std::ios_base::Init"*)* @_ZNSt8ios_base4InitD1Ev to void (i8*)*), i8* getelementptr inbounds (%"class.std::ios_base::Init", %"class.std::ios_base::Init"* @_ZStL8__ioinit, i64 0, i32 0), i8* nonnull @__dso_handle) #8
  ret void
}


!llvm.module.flags = !{!0, !1, !2, !3}
!llvm.ident = !{!4}

!0 = !{i32 1, !"wchar_size", i32 4}
!1 = !{i32 7, !"PIC Level", i32 2}
!2 = !{i32 7, !"PIE Level", i32 2}
!3 = !{i32 7, !"uwtable", i32 1}
!4 = !{!"clang version 13.0.0"}
!5 = !{!6, !6, i64 0}
!6 = !{!"vtable pointer", !7, i64 0}
!7 = !{!"Simple C++ TBAA"}
!8 = !{!9, !10, i64 240}
!9 = !{!"_ZTSSt9basic_iosIcSt11char_traitsIcEE", !10, i64 216, !11, i64 224, !12, i64 225, !10, i64 232, !10, i64 240, !10, i64 248, !10, i64 256}
!10 = !{!"any pointer", !11, i64 0}
!11 = !{!"omnipotent char", !7, i64 0}
!12 = !{!"bool", !11, i64 0}
!13 = !{!14, !11, i64 56}
!14 = !{!"_ZTSSt5ctypeIcE", !10, i64 16, !12, i64 24, !10, i64 32, !10, i64 40, !10, i64 48, !11, i64 56, !11, i64 57, !11, i64 313, !11, i64 569}
!15 = !{!11, !11, i64 0}
!16 = distinct !{!16, !17}
!17 = !{!"llvm.loop.mustprogress"}
!18 = distinct !{!18, !17}
